; Function Attrs: nounwind uwtable
define internal fastcc noundef ptr @r_ref(ptr noundef %0, ptr noundef nonnull readonly captures(none) %1) unnamed_addr #0 {
  %3 = icmp eq ptr %0, null
  br i1 %3, label %Py_DECREF.exit, label %4

4:                                                ; preds = %2
  %5 = getelementptr inbounds nuw i8, ptr %1, i64 56
  %6 = load ptr, ptr %5, align 8, !tbaa !51
  %7 = tail call i32 @PyList_Append(ptr noundef %6, ptr noundef nonnull %0) #11
  %8 = icmp slt i32 %7, 0
  br i1 %8, label %9, label %Py_DECREF.exit

9:                                                ; preds = %4
  %10 = load i32, ptr %0, align 8, !tbaa !25
  %.not.i = icmp sgt i32 %10, -1
  br i1 %.not.i, label %11, label %Py_DECREF.exit

11:                                               ; preds = %9
  %12 = add nsw i32 %10, -1
  store i32 %12, ptr %0, align 8, !tbaa !25
  %13 = icmp eq i32 %12, 0
  br i1 %13, label %14, label %Py_DECREF.exit

14:                                               ; preds = %11
  tail call void @_Py_Dealloc(ptr noundef nonnull %0) #11
  br label %Py_DECREF.exit

Py_DECREF.exit:                                   ; preds = %14, %11, %9, %4, %2
  %.0 = phi ptr [ null, %2 ], [ %0, %4 ], [ null, %9 ], [ null, %11 ], [ null, %14 ]
  ret ptr %.0
}